target datalayout = "e-m:e-p270:32:32-p271:32:32-p272:64:64-i64:64-i128:128-f80:128-n8:16:32:64-S128"
target triple = "x86_64-pc-linux-gnu"

%"class.icu_77::number::Scale" = type <{ i32, [4 x i8], ptr, i32, [4 x i8] }>
%"class.icu_77::number::impl::MultiplierFormatHandler" = type { %"class.icu_77::number::impl::MicroPropsGenerator", %"class.icu_77::number::Scale", ptr }
%"class.icu_77::number::impl::MicroPropsGenerator" = type { ptr }

; Function Attrs: mustprogress uwtable
define void @_ZNK6icu_776number5Scale7applyToERNS0_4impl15DecimalQuantityE(ptr noundef nonnull align 8 dereferenceable(20) %0, ptr noundef nonnull align 8 dereferenceable(66) %1) #1 align 2 {
  %3 = alloca ptr, align 8
  %4 = alloca ptr, align 8
  %5 = alloca i32, align 4
  store ptr %0, ptr %3, align 8, !tbaa !23
  store ptr %1, ptr %4, align 8, !tbaa !43
  %6 = load ptr, ptr %3, align 8
  %7 = load ptr, ptr %4, align 8, !tbaa !43
  %8 = getelementptr inbounds nuw %"class.icu_77::number::Scale", ptr %6, i32 0, i32 0
  %9 = load i32, ptr %8, align 8, !tbaa !27
  %10 = call noundef zeroext i1 @_ZN6icu_776number4impl15DecimalQuantity15adjustMagnitudeEi(ptr noundef nonnull align 8 dereferenceable(66) %7, i32 noundef %9)
  %11 = getelementptr inbounds nuw %"class.icu_77::number::Scale", ptr %6, i32 0, i32 2
  %12 = load ptr, ptr %11, align 8, !tbaa !29
  %13 = icmp ne ptr %12, null
  br i1 %13, label %14, label %18

14:                                               ; preds = %2
  call void @llvm.lifetime.start.p0(i64 4, ptr %5) #10
  store i32 0, ptr %5, align 4, !tbaa !15
  %15 = load ptr, ptr %4, align 8, !tbaa !43
  %16 = getelementptr inbounds nuw %"class.icu_77::number::Scale", ptr %6, i32 0, i32 2
  %17 = load ptr, ptr %16, align 8, !tbaa !29
  call void @_ZN6icu_776number4impl15DecimalQuantity10multiplyByERKNS1_6DecNumER10UErrorCode(ptr noundef nonnull align 8 dereferenceable(66) %15, ptr noundef nonnull align 8 dereferenceable(92) %17, ptr noundef nonnull align 4 dereferenceable(4) %5)
  call void @llvm.lifetime.end.p0(i64 4, ptr %5) #10
  br label %18

18:                                               ; preds = %14, %2
  ret void
}

; Function Attrs: mustprogress uwtable
define void @_ZNK6icu_776number4impl23MultiplierFormatHandler15processQuantityERNS1_15DecimalQuantityERNS1_10MicroPropsER10UErrorCode(ptr noundef nonnull align 8 dereferenceable(40) %0, ptr noundef nonnull align 8 dereferenceable(66) %1, ptr noundef nonnull align 1 %2, ptr noundef nonnull align 4 dereferenceable(4) %3) unnamed_addr #1 align 2 {
  %5 = alloca ptr, align 8
  %6 = alloca ptr, align 8
  %7 = alloca ptr, align 8
  %8 = alloca ptr, align 8
  store ptr %0, ptr %5, align 8, !tbaa !45
  store ptr %1, ptr %6, align 8, !tbaa !43
  store ptr %2, ptr %7, align 8, !tbaa !52
  store ptr %3, ptr %8, align 8, !tbaa !22
  %9 = load ptr, ptr %5, align 8
  %10 = getelementptr inbounds nuw %"class.icu_77::number::impl::MultiplierFormatHandler", ptr %9, i32 0, i32 2
  %11 = load ptr, ptr %10, align 8, !tbaa !49
  %12 = load ptr, ptr %6, align 8, !tbaa !43
  %13 = load ptr, ptr %7, align 8, !tbaa !52
  %14 = load ptr, ptr %8, align 8, !tbaa !22
  %15 = load ptr, ptr %11, align 8, !tbaa !54
  %16 = getelementptr inbounds ptr, ptr %15, i64 2
  %17 = load ptr, ptr %16, align 8
  call void %17(ptr noundef nonnull align 8 dereferenceable(8) %11, ptr noundef nonnull align 8 dereferenceable(66) %12, ptr noundef nonnull align 1 %13, ptr noundef nonnull align 4 dereferenceable(4) %14)
  %18 = getelementptr inbounds nuw %"class.icu_77::number::impl::MultiplierFormatHandler", ptr %9, i32 0, i32 1
  %19 = load ptr, ptr %6, align 8, !tbaa !43
  call void @_ZNK6icu_776number5Scale7applyToERNS0_4impl15DecimalQuantityE(ptr noundef nonnull align 8 dereferenceable(20) %18, ptr noundef nonnull align 8 dereferenceable(66) %19)
  ret void
}