; Function Attrs: mustprogress uwtable
define void @_ZNK6icu_776number4impl23MultiplierFormatHandler15processQuantityERNS1_15DecimalQuantityERNS1_10MicroPropsER10UErrorCode(ptr noundef nonnull readonly align 8 captures(none) dereferenceable(40) %0, ptr noundef nonnull align 8 dereferenceable(66) %1, ptr noundef nonnull align 1 %2, ptr noundef nonnull align 4 dereferenceable(4) %3) unnamed_addr #1 align 2 {
  %5 = alloca i32, align 4
  %6 = getelementptr inbounds nuw i8, ptr %0, i64 32
  %7 = load ptr, ptr %6, align 8, !tbaa !29
  %8 = load ptr, ptr %7, align 8, !tbaa !33
  %9 = getelementptr inbounds nuw i8, ptr %8, i64 16
  %10 = load ptr, ptr %9, align 8
  tail call void %10(ptr noundef nonnull align 8 dereferenceable(8) %7, ptr noundef nonnull align 8 dereferenceable(66) %1, ptr noundef nonnull align 1 %2, ptr noundef nonnull align 4 dereferenceable(4) %3)
  %11 = getelementptr inbounds nuw i8, ptr %0, i64 8
  %12 = load i32, ptr %11, align 8, !tbaa !15
  %13 = tail call noundef zeroext i1 @_ZN6icu_776number4impl15DecimalQuantity15adjustMagnitudeEi(ptr noundef nonnull align 8 dereferenceable(66) %1, i32 noundef %12)
  %14 = getelementptr inbounds nuw i8, ptr %0, i64 16
  %15 = load ptr, ptr %14, align 8, !tbaa !18
  %.not.i = icmp eq ptr %15, null
  br i1 %.not.i, label %_ZNK6icu_776number5Scale7applyToERNS0_4impl15DecimalQuantityE.exit, label %16

16:                                               ; preds = %4
  call void @llvm.lifetime.start.p0(i64 4, ptr nonnull %5) #13
  store i32 0, ptr %5, align 4, !tbaa !13
  call void @_ZN6icu_776number4impl15DecimalQuantity10multiplyByERKNS1_6DecNumER10UErrorCode(ptr noundef nonnull align 8 dereferenceable(66) %1, ptr noundef nonnull align 8 dereferenceable(92) %15, ptr noundef nonnull align 4 dereferenceable(4) %5)
  call void @llvm.lifetime.end.p0(i64 4, ptr nonnull %5) #13
  br label %_ZNK6icu_776number5Scale7applyToERNS0_4impl15DecimalQuantityE.exit

_ZNK6icu_776number5Scale7applyToERNS0_4impl15DecimalQuantityE.exit: ; preds = %4, %16
  ret void
}